target datalayout = "e-m:e-p270:32:32-p271:32:32-p272:64:64-i64:64-i128:128-f80:128-n8:16:32:64-S128"
target triple = "x86_64-pc-linux-gnu"

%struct.redisServer = type { i32, i64, ptr, ptr, ptr, i32, i32, i32, i32, i32, ptr, ptr, ptr, ptr, ptr, i32, i32, i32, i32, i64, i32, i32, i32, i32, ptr, i32, i32, [41 x i8], i32, i64, i32, i32, i32, ptr, ptr, i32, i32, i64, ptr, ptr, ptr, ptr, [2 x i32], i32, i32, i32, i32, i32, i32, [16 x ptr], i32, ptr, ptr, i32, [8 x %struct.connListener], i32, %struct.connListener, ptr, ptr, ptr, ptr, ptr, ptr, ptr, ptr, ptr, ptr, i32, ptr, i32, ptr, [3 x %struct.pause_event], [256 x i8], ptr, i64, i32, i32, [128 x i32], i32, i32, i64, i32, i32, i32, i32, i32, i64, i64, i64, i64, i64, i64, i64, i64, i64, i64, double, i64, i64, i64, i64, i64, i64, i64, i64, i64, i64, i64, i64, i64, i64, i64, i64, i64, i64, i64, i64, i64, double, i64, i64, i64, i64, i64, ptr, i64, i64, i64, %struct.malloc_stats, i64, i64, i64, i64, i64, i64, i64, i64, i64, i64, i64, i64, double, [4 x i64], i64, i64, i64, i64, [128 x i64], [128 x i64], i64, i64, [7 x %struct.anon], i64, i64, i64, i64, i64, i64, [4 x %struct.durationStats], i32, i32, i32, i32, i32, i32, i32, i32, i32, i32, i32, i32, i64, i32, i32, i32, i32, i64, i64, i32, i32, i32, i32, i32, ptr, [3 x %struct.clientBufferLimitsConfig], i32, i32, i32, ptr, i32, i32, i32, i32, i32, i32, ptr, ptr, i32, i32, i64, i64, i64, i64, i64, i32, i32, ptr, i32, i32, i64, i64, i64, i64, i64, i32, i32, i64, i32, i32, i32, i32, i32, i32, i32, i32, ptr, i32, i64, i64, i64, i64, i32, ptr, i32, ptr, i32, i32, i32, i64, i64, i64, i64, i32, i32, i32, i32, i32, i32, ptr, i32, i32, ptr, i32, i32, i32, [2 x i32], i32, %struct.redisOpArray, i32, ptr, i32, ptr, i32, i32, i32, i32, i32, i32, i32, [41 x i8], [41 x i8], i64, i64, i64, i64, i32, i32, ptr, i64, i64, %struct.replDataBuf, i64, i64, i32, i32, i32, i32, i32, i32, i32, i32, i32, i64, ptr, i64, ptr, ptr, ptr, i32, i32, ptr, ptr, i32, i32, i32, i64, i64, i64, i64, ptr, ptr, i32, ptr, i64, i32, i32, i32, i64, i32, i32, i32, i32, ptr, i32, i32, [41 x i8], i64, i32, ptr, i32, i32, i64, i64, i32, i32, i32, i32, i32, i64, [3 x i32], i32, i32, i32, [10 x i32], ptr, ptr, i32, i64, ptr, ptr, i32, i32, i32, i32, i64, i64, i64, i64, i64, i64, i64, i64, i64, i64, i32, i32, i64, i64, i32, i64, i64, i64, i64, i64, ptr, ptr, i32, ptr, i32, i32, i32, i32, i64, i64, ptr, ptr, i32, i32, i32, i32, i32, ptr, ptr, ptr, i32, i32, i32, i32, i32, i32, i32, i64, i32, i32, i64, i32, i32, i32, i32, i32, i32, i32, i64, ptr, ptr, i64, ptr, i32, %struct.aclInfo, i32, i64, i32, i32, i32, %struct.redisTLSContextConfig, ptr, ptr, ptr, ptr, ptr, i64, i32, ptr, i32, i32, i32, i64, i32, ptr }
%struct.connListener = type { [16 x i32], i32, ptr, i32, i32, ptr, ptr }
%struct.pause_event = type { i32, i64 }
%struct.malloc_stats = type { i64, i64, i64, i64, i64, i64, i64, i64, i64, i64, i64 }
%struct.anon = type { i64, i64, [16 x i64], i32 }
%struct.durationStats = type { i64, i64, i64 }
%struct.clientBufferLimitsConfig = type { i64, i64, i64 }
%struct.redisOpArray = type { ptr, i32, i32 }
%struct.replDataBuf = type { ptr, i64, i64, i64, i64 }
%struct.aclInfo = type { i64, i64, i64, i64 }
%struct.redisTLSContextConfig = type { ptr, ptr, ptr, ptr, ptr, ptr, ptr, ptr, ptr, ptr, ptr, ptr, i32, i32, i32, i32 }
%struct._clusterNode = type { i64, [40 x i8], [40 x i8], i32, i64, [2048 x i8], ptr, i32, i32, i32, ptr, ptr, i64, i64, i64, i64, i64, i64, i64, i64, i64, [46 x i8], ptr, ptr, i32, i32, i32, ptr, ptr, ptr }
%struct.ConnectionType = type { ptr, ptr, ptr, ptr, ptr, ptr, ptr, ptr, ptr, ptr, ptr, ptr, ptr, ptr, ptr, ptr, ptr, ptr, ptr, ptr, ptr, ptr, ptr, ptr, ptr, ptr, ptr, ptr, ptr, ptr }
%struct.clusterLink = type { i64, ptr, ptr, i64, i64, ptr, i64, i64, ptr, i32 }
%struct.connection = type { ptr, i32, i32, i32, i16, i16, i16, ptr, ptr, ptr, ptr, ptr }

@server = external global %struct.redisServer, align 8
@.str.112 = private unnamed_addr constant [47 x i8] c"Connection with Node %.40s at %s:%d failed: %s\00", align 1
@.str.113 = private unnamed_addr constant [36 x i8] c"Connecting with Node %.40s at %s:%d\00", align 1

; Function Attrs: inlinehint nounwind uwtable
define internal i32 @connSetReadHandler(ptr noundef %0, ptr noundef %1) #5 {
  %3 = alloca ptr, align 8
  %4 = alloca ptr, align 8
  store ptr %0, ptr %3, align 8, !tbaa !165
  store ptr %1, ptr %4, align 8, !tbaa !47
  %5 = load ptr, ptr %3, align 8, !tbaa !165
  %6 = getelementptr inbounds nuw %struct.connection, ptr %5, i32 0, i32 0
  %7 = load ptr, ptr %6, align 8, !tbaa !190
  %8 = getelementptr inbounds nuw %struct.ConnectionType, ptr %7, i32 0, i32 20
  %9 = load ptr, ptr %8, align 8, !tbaa !284
  %10 = load ptr, ptr %3, align 8, !tbaa !165
  %11 = load ptr, ptr %4, align 8, !tbaa !47
  %12 = call i32 %9(ptr noundef %10, ptr noundef %11)
  ret i32 %12
}

; Function Attrs: inlinehint nounwind uwtable
define internal ptr @connGetLastError(ptr noundef %0) #5 {
  %2 = alloca ptr, align 8
  store ptr %0, ptr %2, align 8, !tbaa !165
  %3 = load ptr, ptr %2, align 8, !tbaa !165
  %4 = getelementptr inbounds nuw %struct.connection, ptr %3, i32 0, i32 0
  %5 = load ptr, ptr %4, align 8, !tbaa !190
  %6 = getelementptr inbounds nuw %struct.ConnectionType, ptr %5, i32 0, i32 21
  %7 = load ptr, ptr %6, align 8, !tbaa !197
  %8 = load ptr, ptr %2, align 8, !tbaa !165
  %9 = call ptr %7(ptr noundef %8)
  ret ptr %9
}

; Function Attrs: inlinehint nounwind uwtable
define internal i32 @connGetState(ptr noundef %0) #5 {
  %2 = alloca ptr, align 8
  store ptr %0, ptr %2, align 8, !tbaa !165
  %3 = load ptr, ptr %2, align 8, !tbaa !165
  %4 = getelementptr inbounds nuw %struct.connection, ptr %3, i32 0, i32 1
  %5 = load i32, ptr %4, align 8, !tbaa !196
  ret i32 %5
}

; Function Attrs: inlinehint nounwind uwtable
define internal ptr @connGetPrivateData(ptr noundef %0) #5 {
  %2 = alloca ptr, align 8
  store ptr %0, ptr %2, align 8, !tbaa !165
  %3 = load ptr, ptr %2, align 8, !tbaa !165
  %4 = getelementptr inbounds nuw %struct.connection, ptr %3, i32 0, i32 7
  %5 = load ptr, ptr %4, align 8, !tbaa !281
  ret ptr %5
}

; Function Attrs: nounwind uwtable
define dso_local void @clusterLinkConnectHandler(ptr noundef %0) #0 {
  %2 = alloca ptr, align 8
  %3 = alloca ptr, align 8
  %4 = alloca ptr, align 8
  %5 = alloca i32, align 4
  %6 = alloca i64, align 8
  store ptr %0, ptr %2, align 8, !tbaa !165
  call void @llvm.lifetime.start.p0(i64 8, ptr %3) #16
  %7 = load ptr, ptr %2, align 8, !tbaa !165
  %8 = call ptr @connGetPrivateData(ptr noundef %7)
  store ptr %8, ptr %3, align 8, !tbaa !172
  call void @llvm.lifetime.start.p0(i64 8, ptr %4) #16
  %9 = load ptr, ptr %3, align 8, !tbaa !172
  %10 = getelementptr inbounds nuw %struct.clusterLink, ptr %9, i32 0, i32 8
  %11 = load ptr, ptr %10, align 8, !tbaa !183
  store ptr %11, ptr %4, align 8, !tbaa !5
  %12 = load ptr, ptr %2, align 8, !tbaa !165
  %13 = call i32 @connGetState(ptr noundef %12)
  %14 = icmp ne i32 %13, 3
  br i1 %14, label %15, label %35

15:                                               ; preds = %1
  br label %16

16:                                               ; preds = %15
  %17 = load i32, ptr getelementptr inbounds nuw (%struct.redisServer, ptr @server, i32 0, i32 159), align 8, !tbaa !68
  %18 = icmp slt i32 1, %17
  br i1 %18, label %19, label %20

19:                                               ; preds = %16
  br label %33

20:                                               ; preds = %16
  %21 = load ptr, ptr %4, align 8, !tbaa !5
  %22 = getelementptr inbounds nuw %struct._clusterNode, ptr %21, i32 0, i32 1
  %23 = getelementptr inbounds [40 x i8], ptr %22, i64 0, i64 0
  %24 = load ptr, ptr %4, align 8, !tbaa !5
  %25 = getelementptr inbounds nuw %struct._clusterNode, ptr %24, i32 0, i32 21
  %26 = getelementptr inbounds [46 x i8], ptr %25, i64 0, i64 0
  %27 = load ptr, ptr %4, align 8, !tbaa !5
  %28 = getelementptr inbounds nuw %struct._clusterNode, ptr %27, i32 0, i32 26
  %29 = load i32, ptr %28, align 8, !tbaa !84
  %30 = load ptr, ptr %2, align 8, !tbaa !165
  %31 = call ptr @connGetLastError(ptr noundef %30)
  call void (i32, ptr, ...) @_serverLog(i32 noundef 1, ptr noundef @.str.112, ptr noundef %23, ptr noundef %26, i32 noundef %29, ptr noundef %31)
  br label %32

32:                                               ; preds = %20
  br label %33

33:                                               ; preds = %32, %19
  %34 = load ptr, ptr %3, align 8, !tbaa !172
  call void @freeClusterLink(ptr noundef %34)
  store i32 1, ptr %5, align 4
  br label %75

35:                                               ; preds = %1
  %36 = load ptr, ptr %2, align 8, !tbaa !165
  %37 = call i32 @connSetReadHandler(ptr noundef %36, ptr noundef @clusterReadHandler)
  call void @llvm.lifetime.start.p0(i64 8, ptr %6) #16
  %38 = load ptr, ptr %4, align 8, !tbaa !5
  %39 = getelementptr inbounds nuw %struct._clusterNode, ptr %38, i32 0, i32 13
  %40 = load i64, ptr %39, align 8, !tbaa !90
  store i64 %40, ptr %6, align 8, !tbaa !142
  %41 = load ptr, ptr %3, align 8, !tbaa !172
  %42 = load ptr, ptr %4, align 8, !tbaa !5
  %43 = getelementptr inbounds nuw %struct._clusterNode, ptr %42, i32 0, i32 3
  %44 = load i32, ptr %43, align 8, !tbaa !86
  %45 = and i32 %44, 128
  %46 = icmp ne i32 %45, 0
  %47 = select i1 %46, i32 2, i32 0
  call void @clusterSendPing(ptr noundef %41, i32 noundef %47)
  %48 = load i64, ptr %6, align 8, !tbaa !142
  %49 = icmp ne i64 %48, 0
  br i1 %49, label %50, label %54

50:                                               ; preds = %35
  %51 = load i64, ptr %6, align 8, !tbaa !142
  %52 = load ptr, ptr %4, align 8, !tbaa !5
  %53 = getelementptr inbounds nuw %struct._clusterNode, ptr %52, i32 0, i32 13
  store i64 %51, ptr %53, align 8, !tbaa !90
  br label %54

54:                                               ; preds = %50, %35
  %55 = load ptr, ptr %4, align 8, !tbaa !5
  %56 = getelementptr inbounds nuw %struct._clusterNode, ptr %55, i32 0, i32 3
  %57 = load i32, ptr %56, align 8, !tbaa !86
  %58 = and i32 %57, -129
  store i32 %58, ptr %56, align 8, !tbaa !86
  br label %59

59:                                               ; preds = %54
  %60 = load i32, ptr getelementptr inbounds nuw (%struct.redisServer, ptr @server, i32 0, i32 159), align 8, !tbaa !68
  %61 = icmp slt i32 0, %60
  br i1 %61, label %62, label %63

62:                                               ; preds = %59
  br label %74

63:                                               ; preds = %59
  %64 = load ptr, ptr %4, align 8, !tbaa !5
  %65 = getelementptr inbounds nuw %struct._clusterNode, ptr %64, i32 0, i32 1
  %66 = getelementptr inbounds [40 x i8], ptr %65, i64 0, i64 0
  %67 = load ptr, ptr %4, align 8, !tbaa !5
  %68 = getelementptr inbounds nuw %struct._clusterNode, ptr %67, i32 0, i32 21
  %69 = getelementptr inbounds [46 x i8], ptr %68, i64 0, i64 0
  %70 = load ptr, ptr %4, align 8, !tbaa !5
  %71 = getelementptr inbounds nuw %struct._clusterNode, ptr %70, i32 0, i32 26
  %72 = load i32, ptr %71, align 8, !tbaa !84
  call void (i32, ptr, ...) @_serverLog(i32 noundef 0, ptr noundef @.str.113, ptr noundef %66, ptr noundef %69, i32 noundef %72)
  br label %73

73:                                               ; preds = %63
  br label %74

74:                                               ; preds = %73, %62
  call void @llvm.lifetime.end.p0(i64 8, ptr %6) #16
  store i32 0, ptr %5, align 4
  br label %75

75:                                               ; preds = %74, %33
  call void @llvm.lifetime.end.p0(i64 8, ptr %4) #16
  call void @llvm.lifetime.end.p0(i64 8, ptr %3) #16
  %76 = load i32, ptr %5, align 4
  switch i32 %76, label %78 [
    i32 0, label %77
    i32 1, label %77
  ]

77:                                               ; preds = %75, %75
  ret void

78:                                               ; preds = %75
  unreachable
}