; Function Attrs: nounwind uwtable
define dso_local void @clusterLinkConnectHandler(ptr noundef %0) #3 {
  %2 = getelementptr i8, ptr %0, i64 32
  %.val20 = load ptr, ptr %2, align 8, !tbaa !173
  %3 = getelementptr inbounds nuw i8, ptr %.val20, i64 64
  %4 = load ptr, ptr %3, align 8, !tbaa !162
  %5 = getelementptr i8, ptr %0, i64 8
  %.val = load i32, ptr %5, align 8, !tbaa !137
  %.not = icmp eq i32 %.val, 3
  br i1 %.not, label %19, label %6

6:                                                ; preds = %1
  %7 = load i32, ptr getelementptr inbounds nuw (i8, ptr @server, i64 6288), align 8, !tbaa !63
  %8 = icmp sgt i32 %7, 1
  br i1 %8, label %18, label %9

9:                                                ; preds = %6
  %10 = getelementptr inbounds nuw i8, ptr %4, i64 8
  %11 = getelementptr inbounds nuw i8, ptr %4, i64 2264
  %12 = getelementptr inbounds nuw i8, ptr %4, i64 2336
  %13 = load i32, ptr %12, align 8, !tbaa !80
  %14 = load ptr, ptr %0, align 8, !tbaa !139
  %15 = getelementptr inbounds nuw i8, ptr %14, i64 168
  %16 = load ptr, ptr %15, align 8, !tbaa !140
  %17 = tail call ptr %16(ptr noundef nonnull %0) #33
  tail call void (i32, ptr, ...) @_serverLog(i32 noundef 1, ptr noundef nonnull @.str.112, ptr noundef nonnull %10, ptr noundef nonnull %11, i32 noundef %13, ptr noundef %17) #33
  br label %18

18:                                               ; preds = %6, %9
  tail call void @freeClusterLink(ptr noundef nonnull %.val20)
  br label %41

19:                                               ; preds = %1
  %20 = load ptr, ptr %0, align 8, !tbaa !139
  %21 = getelementptr inbounds nuw i8, ptr %20, i64 160
  %22 = load ptr, ptr %21, align 8, !tbaa !174
  %23 = tail call i32 %22(ptr noundef nonnull %0, ptr noundef nonnull @clusterReadHandler) #33
  %24 = getelementptr inbounds nuw i8, ptr %4, i64 2200
  %25 = load i64, ptr %24, align 8, !tbaa !87
  %26 = getelementptr inbounds nuw i8, ptr %4, i64 88
  %27 = load i32, ptr %26, align 8, !tbaa !82
  %28 = lshr i32 %27, 6
  %29 = and i32 %28, 2
  tail call void @clusterSendPing(ptr noundef nonnull %.val20, i32 noundef %29)
  %.not19 = icmp eq i64 %25, 0
  br i1 %.not19, label %31, label %30

30:                                               ; preds = %19
  store i64 %25, ptr %24, align 8, !tbaa !87
  br label %31

31:                                               ; preds = %30, %19
  %32 = load i32, ptr %26, align 8, !tbaa !82
  %33 = and i32 %32, -129
  store i32 %33, ptr %26, align 8, !tbaa !82
  %34 = load i32, ptr getelementptr inbounds nuw (i8, ptr @server, i64 6288), align 8, !tbaa !63
  %35 = icmp sgt i32 %34, 0
  br i1 %35, label %41, label %36

36:                                               ; preds = %31
  %37 = getelementptr inbounds nuw i8, ptr %4, i64 8
  %38 = getelementptr inbounds nuw i8, ptr %4, i64 2264
  %39 = getelementptr inbounds nuw i8, ptr %4, i64 2336
  %40 = load i32, ptr %39, align 8, !tbaa !80
  tail call void (i32, ptr, ...) @_serverLog(i32 noundef 0, ptr noundef nonnull @.str.113, ptr noundef nonnull %37, ptr noundef nonnull %38, i32 noundef %40) #33
  br label %41

41:                                               ; preds = %36, %31, %18
  ret void
}